; Function Attrs: nofree norecurse nosync nounwind memory(argmem: read) uwtable
define range(i32 0, 4) i32 @lv_arc_get_mode(ptr noundef readonly captures(address_is_null) %0) local_unnamed_addr #4 {
  %.not = icmp eq ptr %0, null
  br i1 %.not, label %.preheader, label %2

.preheader:                                       ; preds = %1, %.preheader
  br label %.preheader

2:                                                ; preds = %1
  %3 = getelementptr inbounds nuw i8, ptr %0, i64 96
  %4 = load i8, ptr %3, align 8
  %5 = lshr i8 %4, 1
  %6 = and i8 %5, 3
  %7 = zext nneg i8 %6 to i32
  ret i32 %7
}